target datalayout = "e-m:e-p270:32:32-p271:32:32-p272:64:64-i64:64-i128:128-f80:128-n8:16:32:64-S128"
target triple = "x86_64-unknown-linux-gnu"

%struct.z_stream_s = type { ptr, i32, i64, ptr, i32, i64, ptr, ptr, ptr, ptr, ptr, i32, i64, i64 }
%"class.google::protobuf::io::GzipOutputStream" = type { %"class.google::protobuf::io::ZeroCopyOutputStream", ptr, ptr, i32, %struct.z_stream_s, i32, ptr, i64 }
%"class.google::protobuf::io::ZeroCopyOutputStream" = type { ptr }

; Function Attrs: mustprogress nounwind uwtable
define noundef i64 @_ZNK6google8protobuf2io16GzipOutputStream9ByteCountEv(ptr noundef nonnull align 8 dereferenceable(168) %this) unnamed_addr #5 align 2 {
entry:
  %this.addr = alloca ptr, align 8
  store ptr %this, ptr %this.addr, align 8
  %this1 = load ptr, ptr %this.addr, align 8
  %zcontext_ = getelementptr inbounds %"class.google::protobuf::io::GzipOutputStream", ptr %this1, i32 0, i32 4
  %total_in = getelementptr inbounds %struct.z_stream_s, ptr %zcontext_, i32 0, i32 2
  %0 = load i64, ptr %total_in, align 8
  %zcontext_2 = getelementptr inbounds %"class.google::protobuf::io::GzipOutputStream", ptr %this1, i32 0, i32 4
  %avail_in = getelementptr inbounds %struct.z_stream_s, ptr %zcontext_2, i32 0, i32 1
  %1 = load i32, ptr %avail_in, align 8
  %conv = zext i32 %1 to i64
  %add = add i64 %0, %conv
  ret i64 %add
}