; Function Attrs: mustprogress nofree norecurse nosync nounwind willreturn memory(argmem: read) uwtable
define noundef i64 @_ZNK6google8protobuf2io16GzipOutputStream9ByteCountEv(ptr nocapture noundef nonnull readonly align 8 dereferenceable(168) %this) unnamed_addr #11 align 2 {
entry:
  %total_in = getelementptr inbounds i8, ptr %this, i64 48
  %0 = load i64, ptr %total_in, align 8
  %avail_in = getelementptr inbounds i8, ptr %this, i64 40
  %1 = load i32, ptr %avail_in, align 8
  %conv = zext i32 %1 to i64
  %add = add i64 %0, %conv
  ret i64 %add
}